---
triple:          'arm64-apple-darwin'
binary-path:     '/Users/om/Documents/source/eleven_programming_languages/LeetCode/CPlusPlus'
relocations:
  - { offset: 0x5A8D, size: 0x8, addend: 0x0, symName: __ZNSt3__1neB8ne180100IPiEEbRKNS_11__wrap_iterIT_EES6_, symObjAddr: 0x14C, symBinAddr: 0x100004008, symSize: 0x34 }
  - { offset: 0x6712, size: 0x8, addend: 0x0, symName: __ZNSt3__14endlB8ne180100IcNS_11char_traitsIcEEEERNS_13basic_ostreamIT_T0_EES7_, symObjAddr: 0x2F8, symBinAddr: 0x1000041B4, symSize: 0x58 }
  - { offset: 0x6752, size: 0x8, addend: 0x0, symName: __ZNSt3__1eqB8ne180100IPiEEbRKNS_11__wrap_iterIT_EES6_, symObjAddr: 0x72C, symBinAddr: 0x1000045E8, symSize: 0x48 }
  - { offset: 0x6795, size: 0x8, addend: 0x0, symName: __ZNSt3__1miB8ne180100IPKiPiEEDTmicldtfp_4baseEcldtfp0_4baseEERKNS_11__wrap_iterIT_EERKNS5_IT0_EE, symObjAddr: 0x86C, symBinAddr: 0x100004728, symSize: 0x48 }
  - { offset: 0x67E1, size: 0x8, addend: 0x0, symName: __ZNSt3__1neB8ne180100IPKiEEbRKNS_11__wrap_iterIT_EES7_, symObjAddr: 0x8B4, symBinAddr: 0x100004770, symSize: 0x34 }
  - { offset: 0x6824, size: 0x8, addend: 0x0, symName: __ZNSt3__14moveB8ne180100IPiS1_EET0_T_S3_S2_, symObjAddr: 0x934, symBinAddr: 0x1000047F0, symSize: 0x40 }
  - { offset: 0x687E, size: 0x8, addend: 0x0, symName: __ZNSt3__1miB8ne180100IPKiS2_EEDTmicldtfp_4baseEcldtfp0_4baseEERKNS_11__wrap_iterIT_EERKNS4_IT0_EE, symObjAddr: 0x974, symBinAddr: 0x100004830, symSize: 0x48 }
  - { offset: 0x68CA, size: 0x8, addend: 0x0, symName: __ZNSt3__1eqB8ne180100IPKiEEbRKNS_11__wrap_iterIT_EES7_, symObjAddr: 0x9D4, symBinAddr: 0x100004890, symSize: 0x48 }
  - { offset: 0x690D, size: 0x8, addend: 0x0, symName: __ZNSt3__112__to_addressB8ne180100IiEEPT_S2_, symObjAddr: 0xB10, symBinAddr: 0x1000049CC, symSize: 0x14 }
  - { offset: 0x6942, size: 0x8, addend: 0x0, symName: __ZNSt3__16__moveB8ne180100INS_17_ClassicAlgPolicyEPiS2_S2_EENS_4pairIT0_T2_EES4_T1_S5_, symObjAddr: 0xB80, symBinAddr: 0x100004A3C, symSize: 0x44 }
  - { offset: 0x69AE, size: 0x8, addend: 0x0, symName: __ZNSt3__123__dispatch_copy_or_moveB8ne180100INS_17_ClassicAlgPolicyENS_11__move_loopIS1_EENS_14__move_trivialEPiS5_S5_EENS_4pairIT2_T4_EES7_T3_S8_, symObjAddr: 0xBC4, symBinAddr: 0x100004A80, symSize: 0x44 }
  - { offset: 0x6A2C, size: 0x8, addend: 0x0, symName: __ZNSt3__121__unwrap_and_dispatchB8ne180100INS_10__overloadINS_11__move_loopINS_17_ClassicAlgPolicyEEENS_14__move_trivialEEEPiS7_S7_Li0EEENS_4pairIT0_T2_EES9_T1_SA_, symObjAddr: 0xC08, symBinAddr: 0x100004AC4, symSize: 0xB4 }
  - { offset: 0x6ABA, size: 0x8, addend: 0x0, symName: __ZNSt3__114__unwrap_rangeB8ne180100IPiS1_EENS_4pairIT0_S3_EET_S5_, symObjAddr: 0xCBC, symBinAddr: 0x100004B78, symSize: 0x60 }
  - { offset: 0x6C4F, size: 0x8, addend: 0x0, symName: __ZNSt3__113__unwrap_iterB8ne180100IPiNS_18__unwrap_iter_implIS1_Lb1EEELi0EEEDTclsrT0_8__unwrapclsr3stdE7declvalIT_EEEES5_, symObjAddr: 0xD64, symBinAddr: 0x100004C20, symSize: 0x24 }
  - { offset: 0x6C93, size: 0x8, addend: 0x0, symName: __ZNSt3__19make_pairB8ne180100IPiS1_EENS_4pairINS_18__unwrap_ref_decayIT_E4typeENS3_IT0_E4typeEEEOS4_OS7_, symObjAddr: 0xD88, symBinAddr: 0x100004C44, symSize: 0x38 }
  - { offset: 0x6CE2, size: 0x8, addend: 0x0, symName: __ZNSt3__114__rewrap_rangeB8ne180100IPiS1_EET_S2_T0_, symObjAddr: 0xDC0, symBinAddr: 0x100004C7C, symSize: 0x2C }
  - { offset: 0x6D2E, size: 0x8, addend: 0x0, symName: __ZNSt3__113__rewrap_iterB8ne180100IPiS1_NS_18__unwrap_iter_implIS1_Lb1EEEEET_S4_T0_, symObjAddr: 0xDEC, symBinAddr: 0x100004CA8, symSize: 0x3C }
  - { offset: 0x6D83, size: 0x8, addend: 0x0, symName: __ZNSt3__119__copy_trivial_implB8ne180100IiiEENS_4pairIPT_PT0_EES3_S3_S5_, symObjAddr: 0xE28, symBinAddr: 0x100004CE4, symSize: 0x80 }
  - { offset: 0x6DEB, size: 0x8, addend: 0x0, symName: __ZNSt3__119__constexpr_memmoveB8ne180100IiiLi0EEEPT_S2_PT0_NS_15__element_countE, symObjAddr: 0xEA8, symBinAddr: 0x100004D64, symSize: 0x64 }
  - { offset: 0x6E59, size: 0x8, addend: 0x0, symName: __ZNSt3__19make_pairB8ne180100IRPiS1_EENS_4pairINS_18__unwrap_ref_decayIT_E4typeENS4_IT0_E4typeEEEOS5_OS8_, symObjAddr: 0xF0C, symBinAddr: 0x100004DC8, symSize: 0x38 }
  - { offset: 0x6EFB, size: 0x8, addend: 0x0, symName: __ZNSt3__19use_facetB8ne180100INS_5ctypeIcEEEERKT_RKNS_6localeE, symObjAddr: 0x111C, symBinAddr: 0x100004FD8, symSize: 0x2C }
  - { offset: 0x73C8, size: 0x8, addend: 0x0, symName: __ZNSt3__118__constexpr_strlenB8ne180100EPKc, symObjAddr: 0x1304, symBinAddr: 0x1000051C0, symSize: 0x24 }
  - { offset: 0x73F4, size: 0x8, addend: 0x0, symName: __ZNSt3__122__make_exception_guardB8ne180100INS_6vectorINS_12basic_stringIcNS_11char_traitsIcEENS_9allocatorIcEEEENS5_IS7_EEE16__destroy_vectorEEENS_28__exception_guard_exceptionsIT_EESC_, symObjAddr: 0x1484, symBinAddr: 0x100005340, symSize: 0x40 }
  - { offset: 0x7429, size: 0x8, addend: 0x0, symName: __ZNSt3__119__allocate_at_leastB8ne180100INS_9allocatorINS_12basic_stringIcNS_11char_traitsIcEENS1_IcEEEEEEEENS_19__allocation_resultINS_16allocator_traitsIT_E7pointerEEERSA_m, symObjAddr: 0x1894, symBinAddr: 0x100005750, symSize: 0x40 }
  - { offset: 0x746C, size: 0x8, addend: 0x0, symName: __ZNSt3__13minB8ne180100ImEERKT_S3_S3_, symObjAddr: 0x1938, symBinAddr: 0x1000057F4, symSize: 0x2C }
  - { offset: 0x76B0, size: 0x8, addend: 0x0, symName: __ZNSt3__13minB8ne180100ImNS_6__lessIvvEEEERKT_S5_S5_T0_, symObjAddr: 0x19C4, symBinAddr: 0x100005880, symSize: 0x54 }
  - { offset: 0x774F, size: 0x8, addend: 0x0, symName: __ZNSt3__120__throw_length_errorB8ne180100EPKc, symObjAddr: 0x1AA4, symBinAddr: 0x100005960, symSize: 0x64 }
  - { offset: 0x7777, size: 0x8, addend: 0x0, symName: __ZNSt3__117__libcpp_allocateB8ne180100Emm, symObjAddr: 0x1C10, symBinAddr: 0x100005ACC, symSize: 0x28 }
  - { offset: 0x77B4, size: 0x8, addend: 0x0, symName: __ZNSt3__121__libcpp_operator_newB8ne180100IJmEEEPvDpT_, symObjAddr: 0x1C38, symBinAddr: 0x100005AF4, symSize: 0x24 }
  - { offset: 0x77ED, size: 0x8, addend: 0x0, symName: __ZNSt3__130__uninitialized_allocator_copyB8ne180100INS_9allocatorINS_12basic_stringIcNS_11char_traitsIcEENS1_IcEEEEEEPKS6_S9_PS6_EET2_RT_T0_T1_SB_, symObjAddr: 0x1D08, symBinAddr: 0x100005BC4, symSize: 0x80 }
  - { offset: 0x788A, size: 0x8, addend: 0x0, symName: __ZNSt3__114__unwrap_rangeB8ne180100IPKNS_12basic_stringIcNS_11char_traitsIcEENS_9allocatorIcEEEES8_EENS_4pairIT0_SA_EET_SC_, symObjAddr: 0x1E00, symBinAddr: 0x100005CBC, symSize: 0x60 }
  - { offset: 0x78D6, size: 0x8, addend: 0x0, symName: __ZNSt3__135__uninitialized_allocator_copy_implB8ne180100INS_9allocatorINS_12basic_stringIcNS_11char_traitsIcEENS1_IcEEEEEEPKS6_S9_PS6_EET2_RT_T0_T1_SB_, symObjAddr: 0x1E60, symBinAddr: 0x100005D1C, symSize: 0xF4 }
  - { offset: 0x7974, size: 0x8, addend: 0x0, symName: __ZNSt3__113__unwrap_iterB8ne180100IPNS_12basic_stringIcNS_11char_traitsIcEENS_9allocatorIcEEEENS_18__unwrap_iter_implIS7_Lb1EEELi0EEEDTclsrT0_8__unwrapclsr3stdE7declvalIT_EEEESB_, symObjAddr: 0x1F54, symBinAddr: 0x100005E10, symSize: 0x24 }
  - { offset: 0x79B8, size: 0x8, addend: 0x0, symName: __ZNSt3__113__rewrap_iterB8ne180100IPNS_12basic_stringIcNS_11char_traitsIcEENS_9allocatorIcEEEES7_NS_18__unwrap_iter_implIS7_Lb1EEEEET_SA_T0_, symObjAddr: 0x1F78, symBinAddr: 0x100005E34, symSize: 0x3C }
  - { offset: 0x7A0D, size: 0x8, addend: 0x0, symName: __ZNSt3__19make_pairB8ne180100IPKNS_12basic_stringIcNS_11char_traitsIcEENS_9allocatorIcEEEES8_EENS_4pairINS_18__unwrap_ref_decayIT_E4typeENSA_IT0_E4typeEEEOSB_OSE_, symObjAddr: 0x1FB4, symBinAddr: 0x100005E70, symSize: 0x38 }
  - { offset: 0x7A5C, size: 0x8, addend: 0x0, symName: __ZNSt3__113__unwrap_iterB8ne180100IPKNS_12basic_stringIcNS_11char_traitsIcEENS_9allocatorIcEEEENS_18__unwrap_iter_implIS8_Lb1EEELi0EEEDTclsrT0_8__unwrapclsr3stdE7declvalIT_EEEESC_, symObjAddr: 0x1FEC, symBinAddr: 0x100005EA8, symSize: 0x24 }
  - { offset: 0x7BC7, size: 0x8, addend: 0x0, symName: __ZNSt3__112__to_addressB8ne180100IKNS_12basic_stringIcNS_11char_traitsIcEENS_9allocatorIcEEEEEEPT_S9_, symObjAddr: 0x20A4, symBinAddr: 0x100005F60, symSize: 0x14 }
  - { offset: 0x7BFC, size: 0x8, addend: 0x0, symName: __ZNSt3__122__make_exception_guardB8ne180100INS_29_AllocatorDestroyRangeReverseINS_9allocatorINS_12basic_stringIcNS_11char_traitsIcEENS2_IcEEEEEEPS7_EEEENS_28__exception_guard_exceptionsIT_EESC_, symObjAddr: 0x20B8, symBinAddr: 0x100005F74, symSize: 0x4C }
  - { offset: 0x7C32, size: 0x8, addend: 0x0, symName: __ZNSt3__112__to_addressB8ne180100INS_12basic_stringIcNS_11char_traitsIcEENS_9allocatorIcEEEEEEPT_S8_, symObjAddr: 0x217C, symBinAddr: 0x100006038, symSize: 0x14 }
  - { offset: 0x7C67, size: 0x8, addend: 0x0, symName: __ZNSt3__119__allocator_destroyB8ne180100INS_9allocatorINS_12basic_stringIcNS_11char_traitsIcEENS1_IcEEEEEENS_16reverse_iteratorIPS6_EESA_EEvRT_T0_T1_, symObjAddr: 0x235C, symBinAddr: 0x100006218, symSize: 0x70 }
  - { offset: 0x7CCA, size: 0x8, addend: 0x0, symName: __ZNSt3__1neB8ne180100IPNS_12basic_stringIcNS_11char_traitsIcEENS_9allocatorIcEEEES7_EEbRKNS_16reverse_iteratorIT_EERKNS8_IT0_EE, symObjAddr: 0x2400, symBinAddr: 0x1000062BC, symSize: 0x48 }
  - { offset: 0x7D16, size: 0x8, addend: 0x0, symName: __ZNSt3__112__to_addressB8ne180100INS_16reverse_iteratorIPNS_12basic_stringIcNS_11char_traitsIcEENS_9allocatorIcEEEEEEvEEu7__decayIDTclsr19__to_address_helperIT_EE6__callclsr3stdE7declvalIRKSA_EEEEESC_, symObjAddr: 0x2474, symBinAddr: 0x100006330, symSize: 0x24 }
  - { offset: 0x7DC8, size: 0x8, addend: 0x0, symName: __ZNSt3__119__libcpp_deallocateB8ne180100EPvmm, symObjAddr: 0x289C, symBinAddr: 0x100006758, symSize: 0x30 }
  - { offset: 0x7E10, size: 0x8, addend: 0x0, symName: __ZNSt3__127__do_deallocate_handle_sizeB8ne180100IJEEEvPvmDpT_, symObjAddr: 0x28CC, symBinAddr: 0x100006788, symSize: 0x28 }
  - { offset: 0x7E4E, size: 0x8, addend: 0x0, symName: __ZNSt3__124__libcpp_operator_deleteB8ne180100IJPvEEEvDpT_, symObjAddr: 0x28F4, symBinAddr: 0x1000067B0, symSize: 0x24 }
  - { offset: 0x7E83, size: 0x8, addend: 0x0, symName: __ZNSt3__122__make_exception_guardB8ne180100INS_6vectorIiNS_9allocatorIiEEE16__destroy_vectorEEENS_28__exception_guard_exceptionsIT_EES7_, symObjAddr: 0x2B14, symBinAddr: 0x1000069D0, symSize: 0x40 }
  - { offset: 0x7EB8, size: 0x8, addend: 0x0, symName: __ZNSt3__119__allocate_at_leastB8ne180100INS_9allocatorIiEEEENS_19__allocation_resultINS_16allocator_traitsIT_E7pointerEEERS5_m, symObjAddr: 0x2F14, symBinAddr: 0x100006DD0, symSize: 0x40 }
  - { offset: 0x7EFB, size: 0x8, addend: 0x0, symName: __ZNSt3__130__uninitialized_allocator_copyB8ne180100INS_9allocatorIiEEPKiS4_PiEET2_RT_T0_T1_S6_, symObjAddr: 0x30F4, symBinAddr: 0x100006FB0, symSize: 0x80 }
  - { offset: 0x7F98, size: 0x8, addend: 0x0, symName: __ZNSt3__114__unwrap_rangeB8ne180100IPKiS2_EENS_4pairIT0_S4_EET_S6_, symObjAddr: 0x31E4, symBinAddr: 0x1000070A0, symSize: 0x60 }
  - { offset: 0x7FE4, size: 0x8, addend: 0x0, symName: __ZNSt3__135__uninitialized_allocator_copy_implB8ne180100INS_9allocatorIiEEKiiiLPv0EEEPT2_RT_PT0_SA_S6_, symObjAddr: 0x3244, symBinAddr: 0x100007100, symSize: 0x38 }
  - { offset: 0x8065, size: 0x8, addend: 0x0, symName: __ZNSt3__19make_pairB8ne180100IPKiS2_EENS_4pairINS_18__unwrap_ref_decayIT_E4typeENS4_IT0_E4typeEEEOS5_OS8_, symObjAddr: 0x327C, symBinAddr: 0x100007138, symSize: 0x38 }
  - { offset: 0x80B4, size: 0x8, addend: 0x0, symName: __ZNSt3__113__unwrap_iterB8ne180100IPKiNS_18__unwrap_iter_implIS2_Lb1EEELi0EEEDTclsrT0_8__unwrapclsr3stdE7declvalIT_EEEES6_, symObjAddr: 0x32B4, symBinAddr: 0x100007170, symSize: 0x24 }
  - { offset: 0x821F, size: 0x8, addend: 0x0, symName: __ZNSt3__112__to_addressB8ne180100IKiEEPT_S3_, symObjAddr: 0x336C, symBinAddr: 0x100007228, symSize: 0x14 }
  - { offset: 0x8254, size: 0x8, addend: 0x0, symName: __ZNSt3__14copyB8ne180100IPKiPiEET0_T_S5_S4_, symObjAddr: 0x3380, symBinAddr: 0x10000723C, symSize: 0x40 }
  - { offset: 0x82AE, size: 0x8, addend: 0x0, symName: __ZNSt3__16__copyB8ne180100INS_17_ClassicAlgPolicyEPKiS3_PiEENS_4pairIT0_T2_EES6_T1_S7_, symObjAddr: 0x33C0, symBinAddr: 0x10000727C, symSize: 0x44 }
  - { offset: 0x831A, size: 0x8, addend: 0x0, symName: __ZNSt3__123__dispatch_copy_or_moveB8ne180100INS_17_ClassicAlgPolicyENS_11__copy_loopIS1_EENS_14__copy_trivialEPKiS6_PiEENS_4pairIT2_T4_EES9_T3_SA_, symObjAddr: 0x3404, symBinAddr: 0x1000072C0, symSize: 0x44 }
  - { offset: 0x8398, size: 0x8, addend: 0x0, symName: __ZNSt3__121__unwrap_and_dispatchB8ne180100INS_10__overloadINS_11__copy_loopINS_17_ClassicAlgPolicyEEENS_14__copy_trivialEEEPKiS8_PiLi0EEENS_4pairIT0_T2_EESB_T1_SC_, symObjAddr: 0x3448, symBinAddr: 0x100007304, symSize: 0xB4 }
  - { offset: 0x856F, size: 0x8, addend: 0x0, symName: __ZNSt3__19make_pairB8ne180100IPKiPiEENS_4pairINS_18__unwrap_ref_decayIT_E4typeENS5_IT0_E4typeEEEOS6_OS9_, symObjAddr: 0x3544, symBinAddr: 0x100007400, symSize: 0x38 }
  - { offset: 0x85BE, size: 0x8, addend: 0x0, symName: __ZNSt3__114__rewrap_rangeB8ne180100IPKiS2_EET_S3_T0_, symObjAddr: 0x357C, symBinAddr: 0x100007438, symSize: 0x2C }
  - { offset: 0x860A, size: 0x8, addend: 0x0, symName: __ZNSt3__119__copy_trivial_implB8ne180100IKiiEENS_4pairIPT_PT0_EES4_S4_S6_, symObjAddr: 0x35A8, symBinAddr: 0x100007464, symSize: 0x80 }
  - { offset: 0x8672, size: 0x8, addend: 0x0, symName: __ZNSt3__119__constexpr_memmoveB8ne180100IiKiLi0EEEPT_S3_PT0_NS_15__element_countE, symObjAddr: 0x3628, symBinAddr: 0x1000074E4, symSize: 0x64 }
  - { offset: 0x86E0, size: 0x8, addend: 0x0, symName: __ZNSt3__19make_pairB8ne180100IRPKiPiEENS_4pairINS_18__unwrap_ref_decayIT_E4typeENS6_IT0_E4typeEEEOS7_OSA_, symObjAddr: 0x368C, symBinAddr: 0x100007548, symSize: 0x38 }
  - { offset: 0x872F, size: 0x8, addend: 0x0, symName: __ZNSt3__113__rewrap_iterB8ne180100IPKiS2_NS_18__unwrap_iter_implIS2_Lb1EEEEET_S5_T0_, symObjAddr: 0x37A4, symBinAddr: 0x100007660, symSize: 0x3C }
  - { offset: 0x9720, size: 0x8, addend: 0x0, symName: __ZSt28__throw_bad_array_new_lengthB8ne180100v, symObjAddr: 0x1BDC, symBinAddr: 0x100005A98, symSize: 0x34 }
  - { offset: 0x9D10, size: 0x8, addend: 0x0, symName: __Z13removeElementRNSt3__16vectorIiNS_9allocatorIiEEEEi, symObjAddr: 0x0, symBinAddr: 0x100003EBC, symSize: 0x11C }
  - { offset: 0x9D66, size: 0x8, addend: 0x0, symName: __ZNSt3__16vectorIiNS_9allocatorIiEEE5beginB8ne180100Ev, symObjAddr: 0x11C, symBinAddr: 0x100003FD8, symSize: 0x30 }
  - { offset: 0x9D8C, size: 0x8, addend: 0x0, symName: __ZNSt3__16vectorIiNS_9allocatorIiEEE3endB8ne180100Ev, symObjAddr: 0x180, symBinAddr: 0x10000403C, symSize: 0x30 }
  - { offset: 0x9DB2, size: 0x8, addend: 0x0, symName: __ZNKSt3__111__wrap_iterIPiEdeB8ne180100Ev, symObjAddr: 0x1B0, symBinAddr: 0x10000406C, symSize: 0x18 }
  - { offset: 0x9DD6, size: 0x8, addend: 0x0, symName: __ZNSt3__16vectorIiNS_9allocatorIiEEE5eraseENS_11__wrap_iterIPKiEES7_, symObjAddr: 0x1C8, symBinAddr: 0x100004084, symSize: 0xD0 }
  - { offset: 0x9E2E, size: 0x8, addend: 0x0, symName: __ZNSt3__111__wrap_iterIPKiEC1B8ne180100IPiLi0EEERKNS0_IT_EE, symObjAddr: 0x298, symBinAddr: 0x100004154, symSize: 0x34 }
  - { offset: 0x9F51, size: 0x8, addend: 0x0, symName: __ZNSt3__113basic_ostreamIcNS_11char_traitsIcEEElsB8ne180100EPFRS3_S4_E, symObjAddr: 0x2CC, symBinAddr: 0x100004188, symSize: 0x2C }
  - { offset: 0x9F83, size: 0x8, addend: 0x0, symName: __ZNSt3__111__wrap_iterIPiEppB8ne180100Ei, symObjAddr: 0x350, symBinAddr: 0x10000420C, symSize: 0x34 }
  - { offset: 0x9FBF, size: 0x8, addend: 0x0, symName: __ZNKSt3__16vectorIiNS_9allocatorIiEEE4sizeB8ne180100Ev, symObjAddr: 0x384, symBinAddr: 0x100004240, symSize: 0x28 }
  - { offset: 0x9FE3, size: 0x8, addend: 0x0, symName: _main, symObjAddr: 0x3AC, symBinAddr: 0x100004268, symSize: 0x27C }
  - { offset: 0xA020, size: 0x8, addend: 0x0, symName: __ZNSt3__112basic_stringIcNS_11char_traitsIcEENS_9allocatorIcEEEC1B8ne180100ILi0EEEPKc, symObjAddr: 0x628, symBinAddr: 0x1000044E4, symSize: 0x34 }
  - { offset: 0xA05D, size: 0x8, addend: 0x0, symName: __ZNSt3__16vectorINS_12basic_stringIcNS_11char_traitsIcEENS_9allocatorIcEEEENS4_IS6_EEEC1B8ne180100ESt16initializer_listIS6_E, symObjAddr: 0x65C, symBinAddr: 0x100004518, symSize: 0x3C }
  - { offset: 0xA096, size: 0x8, addend: 0x0, symName: __ZNSt3__16vectorIiNS_9allocatorIiEEEC1B8ne180100ESt16initializer_listIiE, symObjAddr: 0x698, symBinAddr: 0x100004554, symSize: 0x3C }
  - { offset: 0xA0CF, size: 0x8, addend: 0x0, symName: __ZNSt3__16vectorIiNS_9allocatorIiEEED1B8ne180100Ev, symObjAddr: 0x6D4, symBinAddr: 0x100004590, symSize: 0x2C }
  - { offset: 0xA0F7, size: 0x8, addend: 0x0, symName: __ZNSt3__16vectorINS_12basic_stringIcNS_11char_traitsIcEENS_9allocatorIcEEEENS4_IS6_EEED1B8ne180100Ev, symObjAddr: 0x700, symBinAddr: 0x1000045BC, symSize: 0x2C }
  - { offset: 0xA11F, size: 0x8, addend: 0x0, symName: __ZNKSt3__111__wrap_iterIPiE4baseB8ne180100Ev, symObjAddr: 0x774, symBinAddr: 0x100004630, symSize: 0x18 }
  - { offset: 0xA143, size: 0x8, addend: 0x0, symName: __ZNSt3__111__wrap_iterIPKiEC2B8ne180100IPiLi0EEERKNS0_IT_EE, symObjAddr: 0x78C, symBinAddr: 0x100004648, symSize: 0x3C }
  - { offset: 0xA188, size: 0x8, addend: 0x0, symName: __ZNSt3__111__wrap_iterIPiEppB8ne180100Ev, symObjAddr: 0x7C8, symBinAddr: 0x100004684, symSize: 0x20 }
  - { offset: 0xA1AC, size: 0x8, addend: 0x0, symName: __ZNSt3__16vectorIiNS_9allocatorIiEEE11__make_iterB8ne180100EPi, symObjAddr: 0x7E8, symBinAddr: 0x1000046A4, symSize: 0x30 }
  - { offset: 0xA1DF, size: 0x8, addend: 0x0, symName: __ZNSt3__111__wrap_iterIPiEC1B8ne180100ES1_, symObjAddr: 0x818, symBinAddr: 0x1000046D4, symSize: 0x34 }
  - { offset: 0xA215, size: 0x8, addend: 0x0, symName: __ZNSt3__111__wrap_iterIPiEC2B8ne180100ES1_, symObjAddr: 0x84C, symBinAddr: 0x100004708, symSize: 0x20 }
  - { offset: 0xA24B, size: 0x8, addend: 0x0, symName: __ZNSt3__16vectorIiNS_9allocatorIiEEE17__destruct_at_endB8ne180100EPi, symObjAddr: 0x8E8, symBinAddr: 0x1000047A4, symSize: 0x4C }
  - { offset: 0xA28D, size: 0x8, addend: 0x0, symName: __ZNKSt3__111__wrap_iterIPKiE4baseB8ne180100Ev, symObjAddr: 0x9BC, symBinAddr: 0x100004878, symSize: 0x18 }
  - { offset: 0xA2B1, size: 0x8, addend: 0x0, symName: __ZNSt3__16vectorIiNS_9allocatorIiEEE22__base_destruct_at_endB8ne180100EPi, symObjAddr: 0xA1C, symBinAddr: 0x1000048D8, symSize: 0x8C }
  - { offset: 0xA2F3, size: 0x8, addend: 0x0, symName: __ZNKSt3__16vectorIiNS_9allocatorIiEEE17__annotate_shrinkB8ne180100Em, symObjAddr: 0xAA8, symBinAddr: 0x100004964, symSize: 0x14 }
  - { offset: 0xA326, size: 0x8, addend: 0x0, symName: __ZNSt3__116allocator_traitsINS_9allocatorIiEEE7destroyB8ne180100IivEEvRS2_PT_, symObjAddr: 0xABC, symBinAddr: 0x100004978, symSize: 0x2C }
  - { offset: 0xA362, size: 0x8, addend: 0x0, symName: __ZNSt3__16vectorIiNS_9allocatorIiEEE7__allocB8ne180100Ev, symObjAddr: 0xAE8, symBinAddr: 0x1000049A4, symSize: 0x28 }
  - { offset: 0xA386, size: 0x8, addend: 0x0, symName: __ZNSt3__19allocatorIiE7destroyB8ne180100EPi, symObjAddr: 0xB34, symBinAddr: 0x1000049F0, symSize: 0x14 }
  - { offset: 0xA3B8, size: 0x8, addend: 0x0, symName: __ZNSt3__117__compressed_pairIPiNS_9allocatorIiEEE6secondB8ne180100Ev, symObjAddr: 0xB48, symBinAddr: 0x100004A04, symSize: 0x24 }
  - { offset: 0xA3DC, size: 0x8, addend: 0x0, symName: __ZNSt3__122__compressed_pair_elemINS_9allocatorIiEELi1ELb1EE5__getB8ne180100Ev, symObjAddr: 0xB6C, symBinAddr: 0x100004A28, symSize: 0x14 }
  - { offset: 0xA423, size: 0x8, addend: 0x0, symName: __ZNKSt3__114__move_trivialclB8ne180100IiiLi0EEENS_4pairIPT_PT0_EES4_S4_S6_, symObjAddr: 0xD1C, symBinAddr: 0x100004BD8, symSize: 0x48 }
  - { offset: 0xA48E, size: 0x8, addend: 0x0, symName: __ZNSt3__14pairIPiS1_EC1B8ne180100IRS1_S1_Li0EEEOT_OT0_, symObjAddr: 0xF44, symBinAddr: 0x100004E00, symSize: 0x3C }
  - { offset: 0xA4EA, size: 0x8, addend: 0x0, symName: __ZNSt3__14pairIPiS1_EC2B8ne180100IRS1_S1_Li0EEEOT_OT0_, symObjAddr: 0xF80, symBinAddr: 0x100004E3C, symSize: 0x34 }
  - { offset: 0xA546, size: 0x8, addend: 0x0, symName: __ZNSt3__118__unwrap_iter_implIPiLb1EE8__unwrapB8ne180100ES1_, symObjAddr: 0xFB4, symBinAddr: 0x100004E70, symSize: 0x24 }
  - { offset: 0xA568, size: 0x8, addend: 0x0, symName: __ZNSt3__14pairIPiS1_EC1B8ne180100IS1_S1_Li0EEEOT_OT0_, symObjAddr: 0xFD8, symBinAddr: 0x100004E94, symSize: 0x3C }
  - { offset: 0xA5C4, size: 0x8, addend: 0x0, symName: __ZNSt3__14pairIPiS1_EC2B8ne180100IS1_S1_Li0EEEOT_OT0_, symObjAddr: 0x1014, symBinAddr: 0x100004ED0, symSize: 0x34 }
  - { offset: 0xA620, size: 0x8, addend: 0x0, symName: __ZNSt3__118__unwrap_iter_implIPiLb1EE8__rewrapB8ne180100ES1_S1_, symObjAddr: 0x1048, symBinAddr: 0x100004F04, symSize: 0x50 }
  - { offset: 0xA650, size: 0x8, addend: 0x0, symName: __ZNKSt3__19basic_iosIcNS_11char_traitsIcEEE5widenB8ne180100Ec, symObjAddr: 0x1098, symBinAddr: 0x100004F54, symSize: 0x84 }
  - { offset: 0xA6C2, size: 0x8, addend: 0x0, symName: __ZNKSt3__15ctypeIcE5widenB8ne180100Ec, symObjAddr: 0x1148, symBinAddr: 0x100005004, symSize: 0x38 }
  - { offset: 0xA6F5, size: 0x8, addend: 0x0, symName: __ZNSt3__112basic_stringIcNS_11char_traitsIcEENS_9allocatorIcEEEC2B8ne180100ILi0EEEPKc, symObjAddr: 0x1180, symBinAddr: 0x10000503C, symSize: 0x58 }
  - { offset: 0xA737, size: 0x8, addend: 0x0, symName: __ZNSt3__117__compressed_pairINS_12basic_stringIcNS_11char_traitsIcEENS_9allocatorIcEEE5__repES5_EC1B8ne180100INS_18__default_init_tagESA_EEOT_OT0_, symObjAddr: 0x11D8, symBinAddr: 0x100005094, symSize: 0x3C }
  - { offset: 0xA78D, size: 0x8, addend: 0x0, symName: __ZNSt3__111char_traitsIcE6lengthB8ne180100EPKc, symObjAddr: 0x1214, symBinAddr: 0x1000050D0, symSize: 0x34 }
  - { offset: 0xA7AF, size: 0x8, addend: 0x0, symName: __ZNSt3__117__compressed_pairINS_12basic_stringIcNS_11char_traitsIcEENS_9allocatorIcEEE5__repES5_EC2B8ne180100INS_18__default_init_tagESA_EEOT_OT0_, symObjAddr: 0x1248, symBinAddr: 0x100005104, symSize: 0x3C }
  - { offset: 0xA805, size: 0x8, addend: 0x0, symName: __ZNSt3__122__compressed_pair_elemINS_12basic_stringIcNS_11char_traitsIcEENS_9allocatorIcEEE5__repELi0ELb0EEC2B8ne180100ENS_18__default_init_tagE, symObjAddr: 0x1284, symBinAddr: 0x100005140, symSize: 0x14 }
  - { offset: 0xA837, size: 0x8, addend: 0x0, symName: __ZNSt3__122__compressed_pair_elemINS_9allocatorIcEELi1ELb1EEC2B8ne180100ENS_18__default_init_tagE, symObjAddr: 0x1298, symBinAddr: 0x100005154, symSize: 0x2C }
  - { offset: 0xA869, size: 0x8, addend: 0x0, symName: __ZNSt3__19allocatorIcEC2B8ne180100Ev, symObjAddr: 0x12C4, symBinAddr: 0x100005180, symSize: 0x2C }
  - { offset: 0xA891, size: 0x8, addend: 0x0, symName: __ZNSt3__116__non_trivial_ifILb1ENS_9allocatorIcEEEC2B8ne180100Ev, symObjAddr: 0x12F0, symBinAddr: 0x1000051AC, symSize: 0x14 }
  - { offset: 0xA8B9, size: 0x8, addend: 0x0, symName: __ZNSt3__16vectorINS_12basic_stringIcNS_11char_traitsIcEENS_9allocatorIcEEEENS4_IS6_EEEC2B8ne180100ESt16initializer_listIS6_E, symObjAddr: 0x1328, symBinAddr: 0x1000051E4, symSize: 0x120 }
  - { offset: 0xA913, size: 0x8, addend: 0x0, symName: __ZNSt3__117__compressed_pairIPNS_12basic_stringIcNS_11char_traitsIcEENS_9allocatorIcEEEENS4_IS6_EEEC1B8ne180100IDnNS_18__default_init_tagEEEOT_OT0_, symObjAddr: 0x1448, symBinAddr: 0x100005304, symSize: 0x3C }
  - { offset: 0xA969, size: 0x8, addend: 0x0, symName: __ZNSt3__16vectorINS_12basic_stringIcNS_11char_traitsIcEENS_9allocatorIcEEEENS4_IS6_EEE16__destroy_vectorC1B8ne180100ERS8_, symObjAddr: 0x14C4, symBinAddr: 0x100005380, symSize: 0x34 }
  - { offset: 0xA9A0, size: 0x8, addend: 0x0, symName: __ZNKSt16initializer_listINSt3__112basic_stringIcNS0_11char_traitsIcEENS0_9allocatorIcEEEEE4sizeB8ne180100Ev, symObjAddr: 0x14F8, symBinAddr: 0x1000053B4, symSize: 0x18 }
  - { offset: 0xA9C4, size: 0x8, addend: 0x0, symName: __ZNSt3__16vectorINS_12basic_stringIcNS_11char_traitsIcEENS_9allocatorIcEEEENS4_IS6_EEE11__vallocateB8ne180100Em, symObjAddr: 0x1510, symBinAddr: 0x1000053CC, symSize: 0xB4 }
  - { offset: 0xAA06, size: 0x8, addend: 0x0, symName: __ZNSt3__16vectorINS_12basic_stringIcNS_11char_traitsIcEENS_9allocatorIcEEEENS4_IS6_EEE18__construct_at_endIPKS6_SB_EEvT_T0_m, symObjAddr: 0x15C4, symBinAddr: 0x100005480, symSize: 0x8C }
  - { offset: 0xAA7A, size: 0x8, addend: 0x0, symName: __ZNKSt16initializer_listINSt3__112basic_stringIcNS0_11char_traitsIcEENS0_9allocatorIcEEEEE5beginB8ne180100Ev, symObjAddr: 0x1650, symBinAddr: 0x10000550C, symSize: 0x18 }
  - { offset: 0xAA9E, size: 0x8, addend: 0x0, symName: __ZNKSt16initializer_listINSt3__112basic_stringIcNS0_11char_traitsIcEENS0_9allocatorIcEEEEE3endB8ne180100Ev, symObjAddr: 0x1668, symBinAddr: 0x100005524, symSize: 0x28 }
  - { offset: 0xAAC2, size: 0x8, addend: 0x0, symName: __ZNSt3__128__exception_guard_exceptionsINS_6vectorINS_12basic_stringIcNS_11char_traitsIcEENS_9allocatorIcEEEENS5_IS7_EEE16__destroy_vectorEE10__completeB8ne180100Ev, symObjAddr: 0x1690, symBinAddr: 0x10000554C, symSize: 0x1C }
  - { offset: 0xAAE6, size: 0x8, addend: 0x0, symName: __ZNSt3__128__exception_guard_exceptionsINS_6vectorINS_12basic_stringIcNS_11char_traitsIcEENS_9allocatorIcEEEENS5_IS7_EEE16__destroy_vectorEED1B8ne180100Ev, symObjAddr: 0x16AC, symBinAddr: 0x100005568, symSize: 0x2C }
  - { offset: 0xAB0E, size: 0x8, addend: 0x0, symName: __ZNSt3__117__compressed_pairIPNS_12basic_stringIcNS_11char_traitsIcEENS_9allocatorIcEEEENS4_IS6_EEEC2B8ne180100IDnNS_18__default_init_tagEEEOT_OT0_, symObjAddr: 0x16D8, symBinAddr: 0x100005594, symSize: 0x40 }
  - { offset: 0xAB64, size: 0x8, addend: 0x0, symName: __ZNSt3__122__compressed_pair_elemIPNS_12basic_stringIcNS_11char_traitsIcEENS_9allocatorIcEEEELi0ELb0EEC2B8ne180100IDnvEEOT_, symObjAddr: 0x1718, symBinAddr: 0x1000055D4, symSize: 0x1C }
  - { offset: 0xABA4, size: 0x8, addend: 0x0, symName: __ZNSt3__122__compressed_pair_elemINS_9allocatorINS_12basic_stringIcNS_11char_traitsIcEENS1_IcEEEEEELi1ELb1EEC2B8ne180100ENS_18__default_init_tagE, symObjAddr: 0x1734, symBinAddr: 0x1000055F0, symSize: 0x2C }
  - { offset: 0xABD6, size: 0x8, addend: 0x0, symName: __ZNSt3__19allocatorINS_12basic_stringIcNS_11char_traitsIcEENS0_IcEEEEEC2B8ne180100Ev, symObjAddr: 0x1760, symBinAddr: 0x10000561C, symSize: 0x2C }
  - { offset: 0xABFE, size: 0x8, addend: 0x0, symName: __ZNSt3__116__non_trivial_ifILb1ENS_9allocatorINS_12basic_stringIcNS_11char_traitsIcEENS1_IcEEEEEEEC2B8ne180100Ev, symObjAddr: 0x178C, symBinAddr: 0x100005648, symSize: 0x14 }
  - { offset: 0xAC26, size: 0x8, addend: 0x0, symName: __ZNSt3__128__exception_guard_exceptionsINS_6vectorINS_12basic_stringIcNS_11char_traitsIcEENS_9allocatorIcEEEENS5_IS7_EEE16__destroy_vectorEEC1B8ne180100ESA_, symObjAddr: 0x17A0, symBinAddr: 0x10000565C, symSize: 0x34 }
  - { offset: 0xAC5C, size: 0x8, addend: 0x0, symName: __ZNSt3__128__exception_guard_exceptionsINS_6vectorINS_12basic_stringIcNS_11char_traitsIcEENS_9allocatorIcEEEENS5_IS7_EEE16__destroy_vectorEEC2B8ne180100ESA_, symObjAddr: 0x17D4, symBinAddr: 0x100005690, symSize: 0x24 }
  - { offset: 0xAC92, size: 0x8, addend: 0x0, symName: __ZNSt3__16vectorINS_12basic_stringIcNS_11char_traitsIcEENS_9allocatorIcEEEENS4_IS6_EEE16__destroy_vectorC2B8ne180100ERS8_, symObjAddr: 0x17F8, symBinAddr: 0x1000056B4, symSize: 0x20 }
  - { offset: 0xACC9, size: 0x8, addend: 0x0, symName: __ZNKSt3__16vectorINS_12basic_stringIcNS_11char_traitsIcEENS_9allocatorIcEEEENS4_IS6_EEE8max_sizeEv, symObjAddr: 0x1818, symBinAddr: 0x1000056D4, symSize: 0x60 }
  - { offset: 0xACEF, size: 0x8, addend: 0x0, symName: __ZNKSt3__16vectorINS_12basic_stringIcNS_11char_traitsIcEENS_9allocatorIcEEEENS4_IS6_EEE20__throw_length_errorB8ne180100Ev, symObjAddr: 0x1878, symBinAddr: 0x100005734, symSize: 0x1C }
  - { offset: 0xAD13, size: 0x8, addend: 0x0, symName: __ZNSt3__16vectorINS_12basic_stringIcNS_11char_traitsIcEENS_9allocatorIcEEEENS4_IS6_EEE7__allocB8ne180100Ev, symObjAddr: 0x18D4, symBinAddr: 0x100005790, symSize: 0x28 }
  - { offset: 0xAD37, size: 0x8, addend: 0x0, symName: __ZNSt3__16vectorINS_12basic_stringIcNS_11char_traitsIcEENS_9allocatorIcEEEENS4_IS6_EEE9__end_capB8ne180100Ev, symObjAddr: 0x18FC, symBinAddr: 0x1000057B8, symSize: 0x28 }
  - { offset: 0xAD5B, size: 0x8, addend: 0x0, symName: __ZNKSt3__16vectorINS_12basic_stringIcNS_11char_traitsIcEENS_9allocatorIcEEEENS4_IS6_EEE14__annotate_newB8ne180100Em, symObjAddr: 0x1924, symBinAddr: 0x1000057E0, symSize: 0x14 }
  - { offset: 0xAD98, size: 0x8, addend: 0x0, symName: __ZNSt3__116allocator_traitsINS_9allocatorINS_12basic_stringIcNS_11char_traitsIcEENS1_IcEEEEEEE8max_sizeB8ne180100IS7_vEEmRKS7_, symObjAddr: 0x1964, symBinAddr: 0x100005820, symSize: 0x24 }
  - { offset: 0xADC5, size: 0x8, addend: 0x0, symName: __ZNKSt3__16vectorINS_12basic_stringIcNS_11char_traitsIcEENS_9allocatorIcEEEENS4_IS6_EEE7__allocB8ne180100Ev, symObjAddr: 0x1988, symBinAddr: 0x100005844, symSize: 0x28 }
  - { offset: 0xADEA, size: 0x8, addend: 0x0, symName: __ZNSt3__114numeric_limitsIlE3maxB8ne180100Ev, symObjAddr: 0x19B0, symBinAddr: 0x10000586C, symSize: 0x14 }
  - { offset: 0xAE11, size: 0x8, addend: 0x0, symName: __ZNKSt3__16__lessIvvEclB8ne180100ImmEEbRKT_RKT0_, symObjAddr: 0x1A18, symBinAddr: 0x1000058D4, symSize: 0x34 }
  - { offset: 0xAE63, size: 0x8, addend: 0x0, symName: __ZNKSt3__19allocatorINS_12basic_stringIcNS_11char_traitsIcEENS0_IcEEEEE8max_sizeB8ne180100Ev, symObjAddr: 0x1A4C, symBinAddr: 0x100005908, symSize: 0x18 }
  - { offset: 0xAE87, size: 0x8, addend: 0x0, symName: __ZNKSt3__117__compressed_pairIPNS_12basic_stringIcNS_11char_traitsIcEENS_9allocatorIcEEEENS4_IS6_EEE6secondB8ne180100Ev, symObjAddr: 0x1A64, symBinAddr: 0x100005920, symSize: 0x24 }
  - { offset: 0xAEAB, size: 0x8, addend: 0x0, symName: __ZNKSt3__122__compressed_pair_elemINS_9allocatorINS_12basic_stringIcNS_11char_traitsIcEENS1_IcEEEEEELi1ELb1EE5__getB8ne180100Ev, symObjAddr: 0x1A88, symBinAddr: 0x100005944, symSize: 0x14 }
  - { offset: 0xAED0, size: 0x8, addend: 0x0, symName: __ZNSt3__123__libcpp_numeric_limitsIlLb1EE3maxB8ne180100Ev, symObjAddr: 0x1A9C, symBinAddr: 0x100005958, symSize: 0x8 }
  - { offset: 0xAEE3, size: 0x8, addend: 0x0, symName: __ZNSt12length_errorC1B8ne180100EPKc, symObjAddr: 0x1B08, symBinAddr: 0x1000059C4, symSize: 0x34 }
  - { offset: 0xAF19, size: 0x8, addend: 0x0, symName: __ZNSt12length_errorC2B8ne180100EPKc, symObjAddr: 0x1B3C, symBinAddr: 0x1000059F8, symSize: 0x44 }
  - { offset: 0xAF4F, size: 0x8, addend: 0x0, symName: __ZNSt3__19allocatorINS_12basic_stringIcNS_11char_traitsIcEENS0_IcEEEEE8allocateB8ne180100Em, symObjAddr: 0x1B80, symBinAddr: 0x100005A3C, symSize: 0x5C }
  - { offset: 0xAF81, size: 0x8, addend: 0x0, symName: __ZNSt3__117__compressed_pairIPNS_12basic_stringIcNS_11char_traitsIcEENS_9allocatorIcEEEENS4_IS6_EEE6secondB8ne180100Ev, symObjAddr: 0x1C5C, symBinAddr: 0x100005B18, symSize: 0x24 }
  - { offset: 0xAFA5, size: 0x8, addend: 0x0, symName: __ZNSt3__122__compressed_pair_elemINS_9allocatorINS_12basic_stringIcNS_11char_traitsIcEENS1_IcEEEEEELi1ELb1EE5__getB8ne180100Ev, symObjAddr: 0x1C80, symBinAddr: 0x100005B3C, symSize: 0x14 }
  - { offset: 0xAFC9, size: 0x8, addend: 0x0, symName: __ZNSt3__117__compressed_pairIPNS_12basic_stringIcNS_11char_traitsIcEENS_9allocatorIcEEEENS4_IS6_EEE5firstB8ne180100Ev, symObjAddr: 0x1C94, symBinAddr: 0x100005B50, symSize: 0x24 }
  - { offset: 0xAFED, size: 0x8, addend: 0x0, symName: __ZNSt3__122__compressed_pair_elemIPNS_12basic_stringIcNS_11char_traitsIcEENS_9allocatorIcEEEELi0ELb0EE5__getB8ne180100Ev, symObjAddr: 0x1CB8, symBinAddr: 0x100005B74, symSize: 0x14 }
  - { offset: 0xB02A, size: 0x8, addend: 0x0, symName: __ZNSt3__16vectorINS_12basic_stringIcNS_11char_traitsIcEENS_9allocatorIcEEEENS4_IS6_EEE21_ConstructTransactionC1B8ne180100ERS8_m, symObjAddr: 0x1CCC, symBinAddr: 0x100005B88, symSize: 0x3C }
  - { offset: 0xB070, size: 0x8, addend: 0x0, symName: __ZNSt3__16vectorINS_12basic_stringIcNS_11char_traitsIcEENS_9allocatorIcEEEENS4_IS6_EEE21_ConstructTransactionD1B8ne180100Ev, symObjAddr: 0x1D88, symBinAddr: 0x100005C44, symSize: 0x2C }
  - { offset: 0xB098, size: 0x8, addend: 0x0, symName: __ZNSt3__16vectorINS_12basic_stringIcNS_11char_traitsIcEENS_9allocatorIcEEEENS4_IS6_EEE21_ConstructTransactionC2B8ne180100ERS8_m, symObjAddr: 0x1DB4, symBinAddr: 0x100005C70, symSize: 0x4C }
  - { offset: 0xB0FC, size: 0x8, addend: 0x0, symName: __ZNSt3__14pairIPKNS_12basic_stringIcNS_11char_traitsIcEENS_9allocatorIcEEEES8_EC1B8ne180100IS8_S8_Li0EEEOT_OT0_, symObjAddr: 0x2010, symBinAddr: 0x100005ECC, symSize: 0x3C }
  - { offset: 0xB158, size: 0x8, addend: 0x0, symName: __ZNSt3__14pairIPKNS_12basic_stringIcNS_11char_traitsIcEENS_9allocatorIcEEEES8_EC2B8ne180100IS8_S8_Li0EEEOT_OT0_, symObjAddr: 0x204C, symBinAddr: 0x100005F08, symSize: 0x34 }
  - { offset: 0xB1B4, size: 0x8, addend: 0x0, symName: __ZNSt3__118__unwrap_iter_implIPKNS_12basic_stringIcNS_11char_traitsIcEENS_9allocatorIcEEEELb1EE8__unwrapB8ne180100ES8_, symObjAddr: 0x2080, symBinAddr: 0x100005F3C, symSize: 0x24 }
  - { offset: 0xB1D6, size: 0x8, addend: 0x0, symName: __ZNSt3__129_AllocatorDestroyRangeReverseINS_9allocatorINS_12basic_stringIcNS_11char_traitsIcEENS1_IcEEEEEEPS6_EC1B8ne180100ERS7_RS8_SB_, symObjAddr: 0x2104, symBinAddr: 0x100005FC0, symSize: 0x44 }
  - { offset: 0xB22B, size: 0x8, addend: 0x0, symName: __ZNSt3__116allocator_traitsINS_9allocatorINS_12basic_stringIcNS_11char_traitsIcEENS1_IcEEEEEEE9constructB8ne180100IS6_JRKS6_EvEEvRS7_PT_DpOT0_, symObjAddr: 0x2148, symBinAddr: 0x100006004, symSize: 0x34 }
  - { offset: 0xB281, size: 0x8, addend: 0x0, symName: __ZNSt3__128__exception_guard_exceptionsINS_29_AllocatorDestroyRangeReverseINS_9allocatorINS_12basic_stringIcNS_11char_traitsIcEENS2_IcEEEEEEPS7_EEE10__completeB8ne180100Ev, symObjAddr: 0x2190, symBinAddr: 0x10000604C, symSize: 0x1C }
  - { offset: 0xB2A5, size: 0x8, addend: 0x0, symName: __ZNSt3__128__exception_guard_exceptionsINS_29_AllocatorDestroyRangeReverseINS_9allocatorINS_12basic_stringIcNS_11char_traitsIcEENS2_IcEEEEEEPS7_EEED1B8ne180100Ev, symObjAddr: 0x21AC, symBinAddr: 0x100006068, symSize: 0x2C }
  - { offset: 0xB2CD, size: 0x8, addend: 0x0, symName: __ZNSt3__128__exception_guard_exceptionsINS_29_AllocatorDestroyRangeReverseINS_9allocatorINS_12basic_stringIcNS_11char_traitsIcEENS2_IcEEEEEEPS7_EEEC1B8ne180100ESA_, symObjAddr: 0x21D8, symBinAddr: 0x100006094, symSize: 0x34 }
  - { offset: 0xB304, size: 0x8, addend: 0x0, symName: __ZNSt3__128__exception_guard_exceptionsINS_29_AllocatorDestroyRangeReverseINS_9allocatorINS_12basic_stringIcNS_11char_traitsIcEENS2_IcEEEEEEPS7_EEEC2B8ne180100ESA_, symObjAddr: 0x220C, symBinAddr: 0x1000060C8, symSize: 0x30 }
  - { offset: 0xB33B, size: 0x8, addend: 0x0, symName: __ZNSt3__129_AllocatorDestroyRangeReverseINS_9allocatorINS_12basic_stringIcNS_11char_traitsIcEENS1_IcEEEEEEPS6_EC2B8ne180100ERS7_RS8_SB_, symObjAddr: 0x223C, symBinAddr: 0x1000060F8, symSize: 0x38 }
  - { offset: 0xB390, size: 0x8, addend: 0x0, symName: __ZNSt3__19allocatorINS_12basic_stringIcNS_11char_traitsIcEENS0_IcEEEEE9constructB8ne180100IS5_JRKS5_EEEvPT_DpOT0_, symObjAddr: 0x2274, symBinAddr: 0x100006130, symSize: 0x30 }
  - { offset: 0xB3E4, size: 0x8, addend: 0x0, symName: __ZNSt3__128__exception_guard_exceptionsINS_29_AllocatorDestroyRangeReverseINS_9allocatorINS_12basic_stringIcNS_11char_traitsIcEENS2_IcEEEEEEPS7_EEED2B8ne180100Ev, symObjAddr: 0x22A4, symBinAddr: 0x100006160, symSize: 0x50 }
  - { offset: 0xB40C, size: 0x8, addend: 0x0, symName: __ZNKSt3__129_AllocatorDestroyRangeReverseINS_9allocatorINS_12basic_stringIcNS_11char_traitsIcEENS1_IcEEEEEEPS6_EclB8ne180100Ev, symObjAddr: 0x22F4, symBinAddr: 0x1000061B0, symSize: 0x68 }
  - { offset: 0xB430, size: 0x8, addend: 0x0, symName: __ZNSt3__116reverse_iteratorIPNS_12basic_stringIcNS_11char_traitsIcEENS_9allocatorIcEEEEEC1B8ne180100ES7_, symObjAddr: 0x23CC, symBinAddr: 0x100006288, symSize: 0x34 }
  - { offset: 0xB466, size: 0x8, addend: 0x0, symName: __ZNSt3__116allocator_traitsINS_9allocatorINS_12basic_stringIcNS_11char_traitsIcEENS1_IcEEEEEEE7destroyB8ne180100IS6_vEEvRS7_PT_, symObjAddr: 0x2448, symBinAddr: 0x100006304, symSize: 0x2C }
  - { offset: 0xB4A2, size: 0x8, addend: 0x0, symName: __ZNSt3__116reverse_iteratorIPNS_12basic_stringIcNS_11char_traitsIcEENS_9allocatorIcEEEEEppB8ne180100Ev, symObjAddr: 0x2498, symBinAddr: 0x100006354, symSize: 0x20 }
  - { offset: 0xB4C6, size: 0x8, addend: 0x0, symName: __ZNKSt3__116reverse_iteratorIPNS_12basic_stringIcNS_11char_traitsIcEENS_9allocatorIcEEEEE4baseB8ne180100Ev, symObjAddr: 0x24B8, symBinAddr: 0x100006374, symSize: 0x18 }
  - { offset: 0xB4EA, size: 0x8, addend: 0x0, symName: __ZNSt3__19allocatorINS_12basic_stringIcNS_11char_traitsIcEENS0_IcEEEEE7destroyB8ne180100EPS5_, symObjAddr: 0x24D0, symBinAddr: 0x10000638C, symSize: 0x28 }
  - { offset: 0xB521, size: 0x8, addend: 0x0, symName: __ZNSt3__119__to_address_helperINS_16reverse_iteratorIPNS_12basic_stringIcNS_11char_traitsIcEENS_9allocatorIcEEEEEEvE6__callB8ne180100ERKS9_, symObjAddr: 0x24F8, symBinAddr: 0x1000063B4, symSize: 0x38 }
  - { offset: 0xB543, size: 0x8, addend: 0x0, symName: __ZNKSt3__116reverse_iteratorIPNS_12basic_stringIcNS_11char_traitsIcEENS_9allocatorIcEEEEEptB8ne180100Ev, symObjAddr: 0x2530, symBinAddr: 0x1000063EC, symSize: 0x24 }
  - { offset: 0xB567, size: 0x8, addend: 0x0, symName: __ZNKSt3__116reverse_iteratorIPNS_12basic_stringIcNS_11char_traitsIcEENS_9allocatorIcEEEEEdeB8ne180100Ev, symObjAddr: 0x2554, symBinAddr: 0x100006410, symSize: 0x28 }
  - { offset: 0xB599, size: 0x8, addend: 0x0, symName: __ZNSt3__116reverse_iteratorIPNS_12basic_stringIcNS_11char_traitsIcEENS_9allocatorIcEEEEEC2B8ne180100ES7_, symObjAddr: 0x257C, symBinAddr: 0x100006438, symSize: 0x28 }
  - { offset: 0xB5CF, size: 0x8, addend: 0x0, symName: __ZNSt3__118__unwrap_iter_implIPNS_12basic_stringIcNS_11char_traitsIcEENS_9allocatorIcEEEELb1EE8__unwrapB8ne180100ES7_, symObjAddr: 0x25A4, symBinAddr: 0x100006460, symSize: 0x24 }
  - { offset: 0xB5F1, size: 0x8, addend: 0x0, symName: __ZNSt3__118__unwrap_iter_implIPNS_12basic_stringIcNS_11char_traitsIcEENS_9allocatorIcEEEELb1EE8__rewrapB8ne180100ES7_S7_, symObjAddr: 0x25C8, symBinAddr: 0x100006484, symSize: 0x58 }
  - { offset: 0xB621, size: 0x8, addend: 0x0, symName: __ZNSt3__16vectorINS_12basic_stringIcNS_11char_traitsIcEENS_9allocatorIcEEEENS4_IS6_EEE21_ConstructTransactionD2B8ne180100Ev, symObjAddr: 0x2620, symBinAddr: 0x1000064DC, symSize: 0x20 }
  - { offset: 0xB649, size: 0x8, addend: 0x0, symName: __ZNSt3__128__exception_guard_exceptionsINS_6vectorINS_12basic_stringIcNS_11char_traitsIcEENS_9allocatorIcEEEENS5_IS7_EEE16__destroy_vectorEED2B8ne180100Ev, symObjAddr: 0x2640, symBinAddr: 0x1000064FC, symSize: 0x50 }
  - { offset: 0xB671, size: 0x8, addend: 0x0, symName: __ZNSt3__16vectorINS_12basic_stringIcNS_11char_traitsIcEENS_9allocatorIcEEEENS4_IS6_EEE16__destroy_vectorclB8ne180100Ev, symObjAddr: 0x2690, symBinAddr: 0x10000654C, symSize: 0x90 }
  - { offset: 0xB695, size: 0x8, addend: 0x0, symName: __ZNSt3__16vectorINS_12basic_stringIcNS_11char_traitsIcEENS_9allocatorIcEEEENS4_IS6_EEE7__clearB8ne180100Ev, symObjAddr: 0x2720, symBinAddr: 0x1000065DC, symSize: 0x28 }
  - { offset: 0xB6B9, size: 0x8, addend: 0x0, symName: __ZNKSt3__16vectorINS_12basic_stringIcNS_11char_traitsIcEENS_9allocatorIcEEEENS4_IS6_EEE17__annotate_deleteB8ne180100Ev, symObjAddr: 0x2748, symBinAddr: 0x100006604, symSize: 0x10 }
  - { offset: 0xB6DD, size: 0x8, addend: 0x0, symName: __ZNSt3__116allocator_traitsINS_9allocatorINS_12basic_stringIcNS_11char_traitsIcEENS1_IcEEEEEEE10deallocateB8ne180100ERS7_PS6_m, symObjAddr: 0x2758, symBinAddr: 0x100006614, symSize: 0x34 }
  - { offset: 0xB71E, size: 0x8, addend: 0x0, symName: __ZNKSt3__16vectorINS_12basic_stringIcNS_11char_traitsIcEENS_9allocatorIcEEEENS4_IS6_EEE8capacityB8ne180100Ev, symObjAddr: 0x278C, symBinAddr: 0x100006648, symSize: 0x40 }
  - { offset: 0xB742, size: 0x8, addend: 0x0, symName: __ZNSt3__16vectorINS_12basic_stringIcNS_11char_traitsIcEENS_9allocatorIcEEEENS4_IS6_EEE22__base_destruct_at_endB8ne180100EPS6_, symObjAddr: 0x27CC, symBinAddr: 0x100006688, symSize: 0x8C }
  - { offset: 0xB784, size: 0x8, addend: 0x0, symName: __ZNSt3__19allocatorINS_12basic_stringIcNS_11char_traitsIcEENS0_IcEEEEE10deallocateB8ne180100EPS5_m, symObjAddr: 0x2858, symBinAddr: 0x100006714, symSize: 0x44 }
  - { offset: 0xB7C4, size: 0x8, addend: 0x0, symName: __ZNKSt3__16vectorINS_12basic_stringIcNS_11char_traitsIcEENS_9allocatorIcEEEENS4_IS6_EEE9__end_capB8ne180100Ev, symObjAddr: 0x2918, symBinAddr: 0x1000067D4, symSize: 0x28 }
  - { offset: 0xB7E8, size: 0x8, addend: 0x0, symName: __ZNKSt3__117__compressed_pairIPNS_12basic_stringIcNS_11char_traitsIcEENS_9allocatorIcEEEENS4_IS6_EEE5firstB8ne180100Ev, symObjAddr: 0x2940, symBinAddr: 0x1000067FC, symSize: 0x24 }
  - { offset: 0xB80C, size: 0x8, addend: 0x0, symName: __ZNKSt3__122__compressed_pair_elemIPNS_12basic_stringIcNS_11char_traitsIcEENS_9allocatorIcEEEELi0ELb0EE5__getB8ne180100Ev, symObjAddr: 0x2964, symBinAddr: 0x100006820, symSize: 0x14 }
  - { offset: 0xB830, size: 0x8, addend: 0x0, symName: __ZNSt3__16vectorINS_12basic_stringIcNS_11char_traitsIcEENS_9allocatorIcEEEENS4_IS6_EEED2B8ne180100Ev, symObjAddr: 0x2978, symBinAddr: 0x100006834, symSize: 0x40 }
  - { offset: 0xB858, size: 0x8, addend: 0x0, symName: __ZNSt3__16vectorIiNS_9allocatorIiEEEC2B8ne180100ESt16initializer_listIiE, symObjAddr: 0x29B8, symBinAddr: 0x100006874, symSize: 0x120 }
  - { offset: 0xB8A7, size: 0x8, addend: 0x0, symName: __ZNSt3__117__compressed_pairIPiNS_9allocatorIiEEEC1B8ne180100IDnNS_18__default_init_tagEEEOT_OT0_, symObjAddr: 0x2AD8, symBinAddr: 0x100006994, symSize: 0x3C }
  - { offset: 0xB8FD, size: 0x8, addend: 0x0, symName: __ZNSt3__16vectorIiNS_9allocatorIiEEE16__destroy_vectorC1B8ne180100ERS3_, symObjAddr: 0x2B54, symBinAddr: 0x100006A10, symSize: 0x34 }
  - { offset: 0xB934, size: 0x8, addend: 0x0, symName: __ZNKSt16initializer_listIiE4sizeB8ne180100Ev, symObjAddr: 0x2B88, symBinAddr: 0x100006A44, symSize: 0x18 }
  - { offset: 0xB958, size: 0x8, addend: 0x0, symName: __ZNSt3__16vectorIiNS_9allocatorIiEEE11__vallocateB8ne180100Em, symObjAddr: 0x2BA0, symBinAddr: 0x100006A5C, symSize: 0xAC }
  - { offset: 0xB99A, size: 0x8, addend: 0x0, symName: __ZNSt3__16vectorIiNS_9allocatorIiEEE18__construct_at_endIPKiS6_EEvT_T0_m, symObjAddr: 0x2C4C, symBinAddr: 0x100006B08, symSize: 0x8C }
  - { offset: 0xBA0E, size: 0x8, addend: 0x0, symName: __ZNKSt16initializer_listIiE5beginB8ne180100Ev, symObjAddr: 0x2CD8, symBinAddr: 0x100006B94, symSize: 0x18 }
  - { offset: 0xBA32, size: 0x8, addend: 0x0, symName: __ZNKSt16initializer_listIiE3endB8ne180100Ev, symObjAddr: 0x2CF0, symBinAddr: 0x100006BAC, symSize: 0x20 }
  - { offset: 0xBA56, size: 0x8, addend: 0x0, symName: __ZNSt3__128__exception_guard_exceptionsINS_6vectorIiNS_9allocatorIiEEE16__destroy_vectorEE10__completeB8ne180100Ev, symObjAddr: 0x2D10, symBinAddr: 0x100006BCC, symSize: 0x1C }
  - { offset: 0xBA7A, size: 0x8, addend: 0x0, symName: __ZNSt3__128__exception_guard_exceptionsINS_6vectorIiNS_9allocatorIiEEE16__destroy_vectorEED1B8ne180100Ev, symObjAddr: 0x2D2C, symBinAddr: 0x100006BE8, symSize: 0x2C }
  - { offset: 0xBAA2, size: 0x8, addend: 0x0, symName: __ZNSt3__117__compressed_pairIPiNS_9allocatorIiEEEC2B8ne180100IDnNS_18__default_init_tagEEEOT_OT0_, symObjAddr: 0x2D58, symBinAddr: 0x100006C14, symSize: 0x40 }
  - { offset: 0xBAF8, size: 0x8, addend: 0x0, symName: __ZNSt3__122__compressed_pair_elemIPiLi0ELb0EEC2B8ne180100IDnvEEOT_, symObjAddr: 0x2D98, symBinAddr: 0x100006C54, symSize: 0x1C }
  - { offset: 0xBB38, size: 0x8, addend: 0x0, symName: __ZNSt3__122__compressed_pair_elemINS_9allocatorIiEELi1ELb1EEC2B8ne180100ENS_18__default_init_tagE, symObjAddr: 0x2DB4, symBinAddr: 0x100006C70, symSize: 0x2C }
  - { offset: 0xBB6A, size: 0x8, addend: 0x0, symName: __ZNSt3__19allocatorIiEC2B8ne180100Ev, symObjAddr: 0x2DE0, symBinAddr: 0x100006C9C, symSize: 0x2C }
  - { offset: 0xBB92, size: 0x8, addend: 0x0, symName: __ZNSt3__116__non_trivial_ifILb1ENS_9allocatorIiEEEC2B8ne180100Ev, symObjAddr: 0x2E0C, symBinAddr: 0x100006CC8, symSize: 0x14 }
  - { offset: 0xBBBA, size: 0x8, addend: 0x0, symName: __ZNSt3__128__exception_guard_exceptionsINS_6vectorIiNS_9allocatorIiEEE16__destroy_vectorEEC1B8ne180100ES5_, symObjAddr: 0x2E20, symBinAddr: 0x100006CDC, symSize: 0x34 }
  - { offset: 0xBBF0, size: 0x8, addend: 0x0, symName: __ZNSt3__128__exception_guard_exceptionsINS_6vectorIiNS_9allocatorIiEEE16__destroy_vectorEEC2B8ne180100ES5_, symObjAddr: 0x2E54, symBinAddr: 0x100006D10, symSize: 0x24 }
  - { offset: 0xBC26, size: 0x8, addend: 0x0, symName: __ZNSt3__16vectorIiNS_9allocatorIiEEE16__destroy_vectorC2B8ne180100ERS3_, symObjAddr: 0x2E78, symBinAddr: 0x100006D34, symSize: 0x20 }
  - { offset: 0xBC5D, size: 0x8, addend: 0x0, symName: __ZNKSt3__16vectorIiNS_9allocatorIiEEE8max_sizeEv, symObjAddr: 0x2E98, symBinAddr: 0x100006D54, symSize: 0x60 }
  - { offset: 0xBC83, size: 0x8, addend: 0x0, symName: __ZNKSt3__16vectorIiNS_9allocatorIiEEE20__throw_length_errorB8ne180100Ev, symObjAddr: 0x2EF8, symBinAddr: 0x100006DB4, symSize: 0x1C }
  - { offset: 0xBCA7, size: 0x8, addend: 0x0, symName: __ZNSt3__16vectorIiNS_9allocatorIiEEE9__end_capB8ne180100Ev, symObjAddr: 0x2F54, symBinAddr: 0x100006E10, symSize: 0x28 }
  - { offset: 0xBCCB, size: 0x8, addend: 0x0, symName: __ZNKSt3__16vectorIiNS_9allocatorIiEEE14__annotate_newB8ne180100Em, symObjAddr: 0x2F7C, symBinAddr: 0x100006E38, symSize: 0x14 }
  - { offset: 0xBD08, size: 0x8, addend: 0x0, symName: __ZNSt3__116allocator_traitsINS_9allocatorIiEEE8max_sizeB8ne180100IS2_vEEmRKS2_, symObjAddr: 0x2F90, symBinAddr: 0x100006E4C, symSize: 0x24 }
  - { offset: 0xBD35, size: 0x8, addend: 0x0, symName: __ZNKSt3__16vectorIiNS_9allocatorIiEEE7__allocB8ne180100Ev, symObjAddr: 0x2FB4, symBinAddr: 0x100006E70, symSize: 0x28 }
  - { offset: 0xBD59, size: 0x8, addend: 0x0, symName: __ZNKSt3__19allocatorIiE8max_sizeB8ne180100Ev, symObjAddr: 0x2FDC, symBinAddr: 0x100006E98, symSize: 0x14 }
  - { offset: 0xBD7D, size: 0x8, addend: 0x0, symName: __ZNKSt3__117__compressed_pairIPiNS_9allocatorIiEEE6secondB8ne180100Ev, symObjAddr: 0x2FF0, symBinAddr: 0x100006EAC, symSize: 0x24 }
  - { offset: 0xBDA1, size: 0x8, addend: 0x0, symName: __ZNKSt3__122__compressed_pair_elemINS_9allocatorIiEELi1ELb1EE5__getB8ne180100Ev, symObjAddr: 0x3014, symBinAddr: 0x100006ED0, symSize: 0x14 }
  - { offset: 0xBDC5, size: 0x8, addend: 0x0, symName: __ZNSt3__19allocatorIiE8allocateB8ne180100Em, symObjAddr: 0x3028, symBinAddr: 0x100006EE4, symSize: 0x58 }
  - { offset: 0xBDF7, size: 0x8, addend: 0x0, symName: __ZNSt3__117__compressed_pairIPiNS_9allocatorIiEEE5firstB8ne180100Ev, symObjAddr: 0x3080, symBinAddr: 0x100006F3C, symSize: 0x24 }
  - { offset: 0xBE1B, size: 0x8, addend: 0x0, symName: __ZNSt3__122__compressed_pair_elemIPiLi0ELb0EE5__getB8ne180100Ev, symObjAddr: 0x30A4, symBinAddr: 0x100006F60, symSize: 0x14 }
  - { offset: 0xBE58, size: 0x8, addend: 0x0, symName: __ZNSt3__16vectorIiNS_9allocatorIiEEE21_ConstructTransactionC1B8ne180100ERS3_m, symObjAddr: 0x30B8, symBinAddr: 0x100006F74, symSize: 0x3C }
  - { offset: 0xBE9E, size: 0x8, addend: 0x0, symName: __ZNSt3__16vectorIiNS_9allocatorIiEEE21_ConstructTransactionD1B8ne180100Ev, symObjAddr: 0x3174, symBinAddr: 0x100007030, symSize: 0x2C }
  - { offset: 0xBEC6, size: 0x8, addend: 0x0, symName: __ZNSt3__16vectorIiNS_9allocatorIiEEE21_ConstructTransactionC2B8ne180100ERS3_m, symObjAddr: 0x31A0, symBinAddr: 0x10000705C, symSize: 0x44 }
  - { offset: 0xBF2A, size: 0x8, addend: 0x0, symName: __ZNSt3__14pairIPKiS2_EC1B8ne180100IS2_S2_Li0EEEOT_OT0_, symObjAddr: 0x32D8, symBinAddr: 0x100007194, symSize: 0x3C }
  - { offset: 0xBF86, size: 0x8, addend: 0x0, symName: __ZNSt3__14pairIPKiS2_EC2B8ne180100IS2_S2_Li0EEEOT_OT0_, symObjAddr: 0x3314, symBinAddr: 0x1000071D0, symSize: 0x34 }
  - { offset: 0xBFE2, size: 0x8, addend: 0x0, symName: __ZNSt3__118__unwrap_iter_implIPKiLb1EE8__unwrapB8ne180100ES2_, symObjAddr: 0x3348, symBinAddr: 0x100007204, symSize: 0x24 }
  - { offset: 0xC027, size: 0x8, addend: 0x0, symName: __ZNKSt3__114__copy_trivialclB8ne180100IKiiLi0EEENS_4pairIPT_PT0_EES5_S5_S7_, symObjAddr: 0x34FC, symBinAddr: 0x1000073B8, symSize: 0x48 }
  - { offset: 0xC092, size: 0x8, addend: 0x0, symName: __ZNSt3__14pairIPKiPiEC1B8ne180100IRS2_S3_Li0EEEOT_OT0_, symObjAddr: 0x36C4, symBinAddr: 0x100007580, symSize: 0x3C }
  - { offset: 0xC0EE, size: 0x8, addend: 0x0, symName: __ZNSt3__14pairIPKiPiEC2B8ne180100IRS2_S3_Li0EEEOT_OT0_, symObjAddr: 0x3700, symBinAddr: 0x1000075BC, symSize: 0x34 }
  - { offset: 0xC14A, size: 0x8, addend: 0x0, symName: __ZNSt3__14pairIPKiPiEC1B8ne180100IS2_S3_Li0EEEOT_OT0_, symObjAddr: 0x3734, symBinAddr: 0x1000075F0, symSize: 0x3C }
  - { offset: 0xC1A6, size: 0x8, addend: 0x0, symName: __ZNSt3__14pairIPKiPiEC2B8ne180100IS2_S3_Li0EEEOT_OT0_, symObjAddr: 0x3770, symBinAddr: 0x10000762C, symSize: 0x34 }
  - { offset: 0xC202, size: 0x8, addend: 0x0, symName: __ZNSt3__118__unwrap_iter_implIPKiLb1EE8__rewrapB8ne180100ES2_S2_, symObjAddr: 0x37E0, symBinAddr: 0x10000769C, symSize: 0x50 }
  - { offset: 0xC232, size: 0x8, addend: 0x0, symName: __ZNSt3__16vectorIiNS_9allocatorIiEEE21_ConstructTransactionD2B8ne180100Ev, symObjAddr: 0x3830, symBinAddr: 0x1000076EC, symSize: 0x20 }
  - { offset: 0xC25A, size: 0x8, addend: 0x0, symName: __ZNSt3__128__exception_guard_exceptionsINS_6vectorIiNS_9allocatorIiEEE16__destroy_vectorEED2B8ne180100Ev, symObjAddr: 0x3850, symBinAddr: 0x10000770C, symSize: 0x50 }
  - { offset: 0xC282, size: 0x8, addend: 0x0, symName: __ZNSt3__16vectorIiNS_9allocatorIiEEE16__destroy_vectorclB8ne180100Ev, symObjAddr: 0x38A0, symBinAddr: 0x10000775C, symSize: 0x90 }
  - { offset: 0xC2A6, size: 0x8, addend: 0x0, symName: __ZNSt3__16vectorIiNS_9allocatorIiEEE7__clearB8ne180100Ev, symObjAddr: 0x3930, symBinAddr: 0x1000077EC, symSize: 0x28 }
  - { offset: 0xC2CA, size: 0x8, addend: 0x0, symName: __ZNKSt3__16vectorIiNS_9allocatorIiEEE17__annotate_deleteB8ne180100Ev, symObjAddr: 0x3958, symBinAddr: 0x100007814, symSize: 0x10 }
  - { offset: 0xC2EE, size: 0x8, addend: 0x0, symName: __ZNSt3__116allocator_traitsINS_9allocatorIiEEE10deallocateB8ne180100ERS2_Pim, symObjAddr: 0x3968, symBinAddr: 0x100007824, symSize: 0x34 }
  - { offset: 0xC32F, size: 0x8, addend: 0x0, symName: __ZNKSt3__16vectorIiNS_9allocatorIiEEE8capacityB8ne180100Ev, symObjAddr: 0x399C, symBinAddr: 0x100007858, symSize: 0x40 }
  - { offset: 0xC353, size: 0x8, addend: 0x0, symName: __ZNSt3__19allocatorIiE10deallocateB8ne180100EPim, symObjAddr: 0x39DC, symBinAddr: 0x100007898, symSize: 0x40 }
  - { offset: 0xC393, size: 0x8, addend: 0x0, symName: __ZNKSt3__16vectorIiNS_9allocatorIiEEE9__end_capB8ne180100Ev, symObjAddr: 0x3A1C, symBinAddr: 0x1000078D8, symSize: 0x28 }
  - { offset: 0xC3B7, size: 0x8, addend: 0x0, symName: __ZNKSt3__117__compressed_pairIPiNS_9allocatorIiEEE5firstB8ne180100Ev, symObjAddr: 0x3A44, symBinAddr: 0x100007900, symSize: 0x24 }
  - { offset: 0xC3DB, size: 0x8, addend: 0x0, symName: __ZNKSt3__122__compressed_pair_elemIPiLi0ELb0EE5__getB8ne180100Ev, symObjAddr: 0x3A68, symBinAddr: 0x100007924, symSize: 0x14 }
  - { offset: 0xC3FF, size: 0x8, addend: 0x0, symName: __ZNSt3__16vectorIiNS_9allocatorIiEEED2B8ne180100Ev, symObjAddr: 0x3A7C, symBinAddr: 0x100007938, symSize: 0x40 }
...
